ccopy_reg
_reconstructor
p0
(cgoogle.oauth2.credentials
Credentials
p1
c__builtin__
object
p2
Ntp3
Rp4
(dp5
S'_token_uri'
p6
Vhttps://oauth2.googleapis.com/token
p7
sS'_scopes'
p8
(lp9
S'https://mail.google.com/'
p10
asS'_id_token'
p11
NsS'token'
p12
Vya29.Glz8Bq7p6X1krl435DvatHeYFgyDB-2Q9cbVZxF6DNyt-xO66Pb1qvN6A3zYTkT4b5SM222zRea2B0fLIvpPs2g3Y_dlxRY8uiqA92fTWnQh0MpsO1gdBPByU8QGoA
p13
sS'_refresh_token'
p14
V1/o40ooc-jsTlCTlGINub2hl1ZszTS2i3znnUkZW-w2R8
p15
sS'_client_secret'
p16
VwtSxxz4YoLTOkWNwyu8W66XB
p17
sS'_client_id'
p18
V741532699209-6gsidt4898q9dq23p5j2sib7lmofhqgk.apps.googleusercontent.com
p19
sS'expiry'
p20
cdatetime
datetime
p21
(S'\x07\xe3\x05\x01\x02\x10\x18\x00\xc5?'
p22
tp23
Rp24
sb.