ccopy_reg
_reconstructor
p0
(cgoogle.oauth2.credentials
Credentials
p1
c__builtin__
object
p2
Ntp3
Rp4
(dp5
S'_token_uri'
p6
Vhttps://oauth2.googleapis.com/token
p7
sS'_scopes'
p8
(lp9
S'https://mail.google.com/'
p10
asS'_id_token'
p11
NsS'token'
p12
Vya29.Glz7BuGJ8eqL8qY3en5km8jYAAQJQmfWPhVU-CgpAfcPDPBKXWBuSlzwUa72hysqehDxo5I-gv9S2KdxBxga4TTIH1dpI3A8aopcT8CYyj2cdzcFXu1Hv08wWbvx3g
p13
sS'_refresh_token'
p14
V1/o40ooc-jsTlCTlGINub2hl1ZszTS2i3znnUkZW-w2R8
p15
sS'_client_secret'
p16
VwtSxxz4YoLTOkWNwyu8W66XB
p17
sS'_client_id'
p18
V741532699209-6gsidt4898q9dq23p5j2sib7lmofhqgk.apps.googleusercontent.com
p19
sS'expiry'
p20
cdatetime
datetime
p21
(S'\x07\xe3\x04\x1e\x02/\x1d\x0e?\\'
p22
tp23
Rp24
sb.