ccopy_reg
_reconstructor
p0
(cgoogle.oauth2.credentials
Credentials
p1
c__builtin__
object
p2
Ntp3
Rp4
(dp5
S'_token_uri'
p6
Vhttps://oauth2.googleapis.com/token
p7
sS'_scopes'
p8
(lp9
S'https://mail.google.com/'
p10
asS'_id_token'
p11
NsS'token'
p12
Vya29.Glz7BqqYiMuMpNQCCfCmEk9p-dcdQED-GPa3Y_CpEf5jPRZ4pj5zrXVAJUlEdN4XHVYbe_uuTLtgZkO4DK1H1PS_C68wmqphJ6uUkJv6YQc9_VaVgyV4G4msIxJALA
p13
sS'_refresh_token'
p14
V1/o40ooc-jsTlCTlGINub2hl1ZszTS2i3znnUkZW-w2R8
p15
sS'_client_secret'
p16
VwtSxxz4YoLTOkWNwyu8W66XB
p17
sS'_client_id'
p18
V741532699209-6gsidt4898q9dq23p5j2sib7lmofhqgk.apps.googleusercontent.com
p19
sS'expiry'
p20
cdatetime
datetime
p21
(S'\x07\xe3\x04\x1e\x15\x0e\x06\x004\xea'
p22
tp23
Rp24
sb.